; Function Attrs: inlinehint mustprogress nounwind uwtable
define internal fastcc void @_ZSt8_DestroyIPN5Yosys7hashlib4dictINS0_5RTLIL8IdStringEN12_GLOBAL__N_119mutate_once_queue_tIS4_NS5_14mutate_queue_tEEENS1_8hash_opsIS4_EEE7entry_tEEvT_SE_(ptr noundef readonly captures(address) %0, ptr noundef readnone captures(address) %1) unnamed_addr #4 personality ptr @__gxx_personality_v0 {
  %.not4.i = icmp eq ptr %0, %1
  br i1 %.not4.i, label %_ZNSt12_Destroy_auxILb0EE9__destroyIPN5Yosys7hashlib4dictINS2_5RTLIL8IdStringEN12_GLOBAL__N_119mutate_once_queue_tIS6_NS7_14mutate_queue_tEEENS3_8hash_opsIS6_EEE7entry_tEEEvT_SG_.exit, label %.lr.ph.i

.lr.ph.i:                                         ; preds = %2, %_ZSt8_DestroyIN5Yosys7hashlib4dictINS0_5RTLIL8IdStringEN12_GLOBAL__N_119mutate_once_queue_tIS4_NS5_14mutate_queue_tEEENS1_8hash_opsIS4_EEE7entry_tEEvPT_.exit.i
  %.05.i = phi ptr [ %27, %_ZSt8_DestroyIN5Yosys7hashlib4dictINS0_5RTLIL8IdStringEN12_GLOBAL__N_119mutate_once_queue_tIS4_NS5_14mutate_queue_tEEENS1_8hash_opsIS4_EEE7entry_tEEvPT_.exit.i ], [ %0, %2 ]
  %3 = getelementptr inbounds nuw i8, ptr %.05.i, i64 8
  %4 = getelementptr inbounds nuw i8, ptr %.05.i, i64 32
  tail call fastcc void @_ZNSt6vectorIN5Yosys7hashlib4dictINS0_5RTLIL8IdStringEN12_GLOBAL__N_114mutate_queue_tENS1_8hash_opsIS4_EEE7entry_tESaISA_EED2Ev(ptr noundef nonnull readonly align 8 dereferenceable(24) %4) #30
  %5 = load ptr, ptr %3, align 8, !tbaa !62
  %.not.i.i.i.i.i.i.i.i.i = icmp eq ptr %5, null
  br i1 %.not.i.i.i.i.i.i.i.i.i, label %_ZN12_GLOBAL__N_119mutate_once_queue_tIN5Yosys5RTLIL8IdStringENS_14mutate_queue_tEED2Ev.exit.i.i.i.i, label %6

6:                                                ; preds = %.lr.ph.i
  %7 = getelementptr inbounds nuw i8, ptr %.05.i, i64 24
  %8 = load ptr, ptr %7, align 8, !tbaa !195
  %9 = ptrtoint ptr %8 to i64
  %10 = ptrtoint ptr %5 to i64
  %11 = sub i64 %9, %10
  tail call void @_ZdlPvm(ptr noundef nonnull %5, i64 noundef %11) #31
  br label %_ZN12_GLOBAL__N_119mutate_once_queue_tIN5Yosys5RTLIL8IdStringENS_14mutate_queue_tEED2Ev.exit.i.i.i.i

_ZN12_GLOBAL__N_119mutate_once_queue_tIN5Yosys5RTLIL8IdStringENS_14mutate_queue_tEED2Ev.exit.i.i.i.i: ; preds = %6, %.lr.ph.i
  %12 = load i32, ptr %.05.i, align 4, !tbaa !36
  %13 = load i8, ptr @_ZN5Yosys5RTLIL8IdString17destruct_guard_okE, align 1, !tbaa !59, !range !60, !noundef !61
  %14 = trunc nuw i8 %13 to i1
  %15 = icmp ne i32 %12, 0
  %or.cond.i.i.i.i.i.i = and i1 %15, %14
  br i1 %or.cond.i.i.i.i.i.i, label %16, label %_ZSt8_DestroyIN5Yosys7hashlib4dictINS0_5RTLIL8IdStringEN12_GLOBAL__N_119mutate_once_queue_tIS4_NS5_14mutate_queue_tEEENS1_8hash_opsIS4_EEE7entry_tEEvPT_.exit.i

16:                                               ; preds = %_ZN12_GLOBAL__N_119mutate_once_queue_tIN5Yosys5RTLIL8IdStringENS_14mutate_queue_tEED2Ev.exit.i.i.i.i
  %17 = sext i32 %12 to i64
  %18 = load ptr, ptr @_ZN5Yosys5RTLIL8IdString24global_refcount_storage_E, align 8, !tbaa !62
  %19 = getelementptr inbounds nuw i32, ptr %18, i64 %17
  %20 = load i32, ptr %19, align 4, !tbaa !63
  %21 = add nsw i32 %20, -1
  store i32 %21, ptr %19, align 4, !tbaa !63
  %22 = icmp sgt i32 %20, 1
  br i1 %22, label %_ZSt8_DestroyIN5Yosys7hashlib4dictINS0_5RTLIL8IdStringEN12_GLOBAL__N_119mutate_once_queue_tIS4_NS5_14mutate_queue_tEEENS1_8hash_opsIS4_EEE7entry_tEEvPT_.exit.i, label %23

23:                                               ; preds = %16
  invoke void @_ZN5Yosys5RTLIL8IdString14free_referenceEi(i32 noundef %12)
          to label %_ZSt8_DestroyIN5Yosys7hashlib4dictINS0_5RTLIL8IdStringEN12_GLOBAL__N_119mutate_once_queue_tIS4_NS5_14mutate_queue_tEEENS1_8hash_opsIS4_EEE7entry_tEEvPT_.exit.i unwind label %24

24:                                               ; preds = %23
  %25 = landingpad { ptr, i32 }
          catch ptr null
  %26 = extractvalue { ptr, i32 } %25, 0
  tail call void @__clang_call_terminate(ptr %26) #32
  unreachable

_ZSt8_DestroyIN5Yosys7hashlib4dictINS0_5RTLIL8IdStringEN12_GLOBAL__N_119mutate_once_queue_tIS4_NS5_14mutate_queue_tEEENS1_8hash_opsIS4_EEE7entry_tEEvPT_.exit.i: ; preds = %23, %16, %_ZN12_GLOBAL__N_119mutate_once_queue_tIN5Yosys5RTLIL8IdStringENS_14mutate_queue_tEED2Ev.exit.i.i.i.i
  %27 = getelementptr inbounds nuw i8, ptr %.05.i, i64 72
  %.not.i = icmp eq ptr %27, %1
  br i1 %.not.i, label %_ZNSt12_Destroy_auxILb0EE9__destroyIPN5Yosys7hashlib4dictINS2_5RTLIL8IdStringEN12_GLOBAL__N_119mutate_once_queue_tIS6_NS7_14mutate_queue_tEEENS3_8hash_opsIS6_EEE7entry_tEEEvT_SG_.exit, label %.lr.ph.i, !llvm.loop !590

_ZNSt12_Destroy_auxILb0EE9__destroyIPN5Yosys7hashlib4dictINS2_5RTLIL8IdStringEN12_GLOBAL__N_119mutate_once_queue_tIS6_NS7_14mutate_queue_tEEENS3_8hash_opsIS6_EEE7entry_tEEEvT_SG_.exit: ; preds = %_ZSt8_DestroyIN5Yosys7hashlib4dictINS0_5RTLIL8IdStringEN12_GLOBAL__N_119mutate_once_queue_tIS4_NS5_14mutate_queue_tEEENS1_8hash_opsIS4_EEE7entry_tEEvPT_.exit.i, %2
  ret void
}